; Function Attrs: null_pointer_is_valid sspstrong uwtable
define internal void @rtp_reset(ptr noundef %0) #0 {
  %2 = ptrtoint ptr %0 to i64
  %3 = add i64 %2, -11
  %4 = inttoptr i64 %3 to ptr
  %5 = getelementptr inbounds nuw i8, ptr %4, i64 112
  %6 = load ptr, ptr %5, align 8
  %7 = tail call ptr @g_list_first(ptr noundef %6)
  %.not16 = icmp eq ptr %7, null
  br i1 %.not16, label %._crit_edge, label %.lr.ph

.lr.ph:                                           ; preds = %1, %.lr.ph
  %.017 = phi ptr [ %11, %.lr.ph ], [ %7, %1 ]
  %8 = load ptr, ptr %.017, align 8
  tail call void @rtpstream_info_free_data(ptr noundef %8)
  %9 = load ptr, ptr %.017, align 8
  tail call void @g_free(ptr noundef %9)
  %10 = getelementptr inbounds nuw i8, ptr %.017, i64 8
  %11 = load ptr, ptr %10, align 8
  %.not = icmp eq ptr %11, null
  br i1 %.not, label %._crit_edge, label %.lr.ph, !llvm.loop !12

._crit_edge:                                      ; preds = %.lr.ph, %1
  %12 = load ptr, ptr %5, align 8
  tail call void @g_list_free(ptr noundef %12)
  store ptr null, ptr %5, align 8
  %13 = getelementptr inbounds nuw i8, ptr %4, i64 104
  store i32 0, ptr %13, align 8
  %14 = load ptr, ptr %4, align 8
  %.not15 = icmp eq ptr %14, null
  br i1 %.not15, label %16, label %15

15:                                               ; preds = %._crit_edge
  tail call void %14(ptr noundef %4)
  br label %16

16:                                               ; preds = %15, %._crit_edge
  ret void
}